; Function Attrs: mustprogress uwtable
define void @_ZN6icu_7511TextTrieMap9buildTrieER10UErrorCode(ptr nocapture noundef nonnull align 8 dereferenceable(56) %this, ptr noundef nonnull align 4 dereferenceable(4) %status) local_unnamed_addr #1 align 2 personality ptr @__gxx_personality_v0 {
entry:
  %keyString = alloca %"class.icu_75::UnicodeString", align 8
  %agg.tmp = alloca %"class.icu_75::ConstChar16Ptr", align 8
  %fLazyContents = getelementptr inbounds i8, ptr %this, i64 32
  %0 = load ptr, ptr %fLazyContents, align 8
  %cmp.not = icmp eq ptr %0, null
  br i1 %cmp.not, label %if.end, label %for.cond.preheader

for.cond.preheader:                               ; preds = %entry
  %count.i7 = getelementptr inbounds i8, ptr %0, i64 8
  %1 = load i32, ptr %count.i7, align 8
  %cmp38 = icmp sgt i32 %1, 0
  br i1 %cmp38, label %for.body, label %delete.end

for.body:                                         ; preds = %for.cond.preheader, %invoke.cont9
  %2 = phi ptr [ %5, %invoke.cont9 ], [ %0, %for.cond.preheader ]
  %i.09 = phi i32 [ %add10, %invoke.cont9 ], [ 0, %for.cond.preheader ]
  %call5 = call noundef ptr @_ZNK6icu_757UVector9elementAtEi(ptr noundef nonnull align 8 dereferenceable(40) %2, i32 noundef %i.09)
  %3 = load ptr, ptr %fLazyContents, align 8
  %add = or disjoint i32 %i.09, 1
  %call7 = call noundef ptr @_ZNK6icu_757UVector9elementAtEi(ptr noundef nonnull align 8 dereferenceable(40) %3, i32 noundef %add)
  store ptr %call5, ptr %agg.tmp, align 8
  invoke void @_ZN6icu_7513UnicodeStringC1EaNS_14ConstChar16PtrEi(ptr noundef nonnull align 8 dereferenceable(64) %keyString, i8 noundef signext 1, ptr noundef nonnull %agg.tmp, i32 noundef -1)
          to label %invoke.cont unwind label %lpad

invoke.cont:                                      ; preds = %for.body
  %4 = load ptr, ptr %agg.tmp, align 8
  call void asm sideeffect "", "rm,~{memory},~{dirflag},~{fpsr},~{flags}"(ptr %4) #20, !srcloc !11
  invoke void @_ZN6icu_7511TextTrieMap7putImplERKNS_13UnicodeStringEPvR10UErrorCode(ptr noundef nonnull align 8 dereferenceable(56) %this, ptr noundef nonnull align 8 dereferenceable(64) %keyString, ptr noundef %call7, ptr noundef nonnull align 4 dereferenceable(4) %status)
          to label %invoke.cont9 unwind label %lpad8

invoke.cont9:                                     ; preds = %invoke.cont
  call void @_ZN6icu_7513UnicodeStringD1Ev(ptr noundef nonnull align 8 dereferenceable(64) %keyString) #20
  %add10 = add nuw nsw i32 %i.09, 2
  %5 = load ptr, ptr %fLazyContents, align 8
  %count.i = getelementptr inbounds i8, ptr %5, i64 8
  %6 = load i32, ptr %count.i, align 8
  %cmp3 = icmp slt i32 %add10, %6
  br i1 %cmp3, label %for.body, label %delete.end, !llvm.loop !12

lpad:                                             ; preds = %for.body
  %7 = landingpad { ptr, i32 }
          cleanup
  %8 = load ptr, ptr %agg.tmp, align 8
  call void asm sideeffect "", "rm,~{memory},~{dirflag},~{fpsr},~{flags}"(ptr %8) #20, !srcloc !11
  br label %eh.resume

lpad8:                                            ; preds = %invoke.cont
  %9 = landingpad { ptr, i32 }
          cleanup
  call void @_ZN6icu_7513UnicodeStringD1Ev(ptr noundef nonnull align 8 dereferenceable(64) %keyString) #20
  br label %eh.resume

delete.end:                                       ; preds = %invoke.cont9, %for.cond.preheader
  %.lcssa = phi ptr [ %0, %for.cond.preheader ], [ %5, %invoke.cont9 ]
  %vtable = load ptr, ptr %.lcssa, align 8
  %vfn = getelementptr inbounds i8, ptr %vtable, i64 8
  %10 = load ptr, ptr %vfn, align 8
  call void %10(ptr noundef nonnull align 8 dereferenceable(40) %.lcssa) #20
  store ptr null, ptr %fLazyContents, align 8
  br label %if.end

if.end:                                           ; preds = %delete.end, %entry
  ret void

eh.resume:                                        ; preds = %lpad8, %lpad
  %.pn = phi { ptr, i32 } [ %9, %lpad8 ], [ %7, %lpad ]
  resume { ptr, i32 } %.pn
}